target datalayout = "e-m:e-p270:32:32-p271:32:32-p272:64:64-i64:64-i128:128-f80:128-n8:16:32:64-S128"
target triple = "x86_64-pc-linux-gnu"

@SysCache = internal global [85 x ptr] zeroinitializer, align 16

; Function Attrs: nounwind uwtable
define dso_local void @ReleaseSysCache(ptr noundef %0) #0 {
  %2 = alloca ptr, align 8
  store ptr %0, ptr %2, align 8
  %3 = load ptr, ptr %2, align 8
  call void @ReleaseCatCache(ptr noundef %3)
  ret void
}

; Function Attrs: nounwind uwtable
define dso_local ptr @SearchSysCache(i32 noundef %0, i64 noundef %1, i64 noundef %2, i64 noundef %3, i64 noundef %4) #0 {
  %6 = alloca i32, align 4
  %7 = alloca i64, align 8
  %8 = alloca i64, align 8
  %9 = alloca i64, align 8
  %10 = alloca i64, align 8
  store i32 %0, ptr %6, align 4
  store i64 %1, ptr %7, align 8
  store i64 %2, ptr %8, align 8
  store i64 %3, ptr %9, align 8
  store i64 %4, ptr %10, align 8
  %11 = load i32, ptr %6, align 4
  %12 = sext i32 %11 to i64
  %13 = getelementptr inbounds [85 x ptr], ptr @SysCache, i64 0, i64 %12
  %14 = load ptr, ptr %13, align 8
  %15 = load i64, ptr %7, align 8
  %16 = load i64, ptr %8, align 8
  %17 = load i64, ptr %9, align 8
  %18 = load i64, ptr %10, align 8
  %19 = call ptr @SearchCatCache(ptr noundef %14, i64 noundef %15, i64 noundef %16, i64 noundef %17, i64 noundef %18)
  ret ptr %19
}

; Function Attrs: nounwind uwtable
define dso_local ptr @SearchSysCacheCopy(i32 noundef %0, i64 noundef %1, i64 noundef %2, i64 noundef %3, i64 noundef %4) #0 {
  %6 = alloca ptr, align 8
  %7 = alloca i32, align 4
  %8 = alloca i64, align 8
  %9 = alloca i64, align 8
  %10 = alloca i64, align 8
  %11 = alloca i64, align 8
  %12 = alloca ptr, align 8
  %13 = alloca ptr, align 8
  %14 = alloca i32, align 4
  store i32 %0, ptr %7, align 4
  store i64 %1, ptr %8, align 8
  store i64 %2, ptr %9, align 8
  store i64 %3, ptr %10, align 8
  store i64 %4, ptr %11, align 8
  call void @llvm.lifetime.start.p0(i64 8, ptr %12) #6
  call void @llvm.lifetime.start.p0(i64 8, ptr %13) #6
  %15 = load i32, ptr %7, align 4
  %16 = load i64, ptr %8, align 8
  %17 = load i64, ptr %9, align 8
  %18 = load i64, ptr %10, align 8
  %19 = load i64, ptr %11, align 8
  %20 = call ptr @SearchSysCache(i32 noundef %15, i64 noundef %16, i64 noundef %17, i64 noundef %18, i64 noundef %19)
  store ptr %20, ptr %12, align 8
  %21 = load ptr, ptr %12, align 8
  %22 = icmp ne ptr %21, null
  br i1 %22, label %25, label %23

23:                                               ; preds = %5
  %24 = load ptr, ptr %12, align 8
  store ptr %24, ptr %6, align 8
  store i32 1, ptr %14, align 4
  br label %30

25:                                               ; preds = %5
  %26 = load ptr, ptr %12, align 8
  %27 = call ptr @heap_copytuple(ptr noundef %26)
  store ptr %27, ptr %13, align 8
  %28 = load ptr, ptr %12, align 8
  call void @ReleaseSysCache(ptr noundef %28)
  %29 = load ptr, ptr %13, align 8
  store ptr %29, ptr %6, align 8
  store i32 1, ptr %14, align 4
  br label %30

30:                                               ; preds = %25, %23
  call void @llvm.lifetime.end.p0(i64 8, ptr %13) #6
  call void @llvm.lifetime.end.p0(i64 8, ptr %12) #6
  %31 = load ptr, ptr %6, align 8
  ret ptr %31
}