; Function Attrs: nounwind uwtable
define dso_local ptr @SearchSysCacheCopy(i32 noundef %0, i64 noundef %1, i64 noundef %2, i64 noundef %3, i64 noundef %4) local_unnamed_addr #0 {
  %6 = sext i32 %0 to i64
  %7 = getelementptr inbounds [85 x ptr], ptr @SysCache, i64 0, i64 %6
  %8 = load ptr, ptr %7, align 8
  %9 = tail call ptr @SearchCatCache(ptr noundef %8, i64 noundef %1, i64 noundef %2, i64 noundef %3, i64 noundef %4) #11
  %.not = icmp eq ptr %9, null
  br i1 %.not, label %12, label %10

10:                                               ; preds = %5
  %11 = tail call ptr @heap_copytuple(ptr noundef nonnull %9) #11
  tail call void @ReleaseCatCache(ptr noundef nonnull %9) #11
  br label %12

12:                                               ; preds = %5, %10
  %.0 = phi ptr [ %11, %10 ], [ null, %5 ]
  ret ptr %.0
}